target datalayout = "e-m:e-p270:32:32-p271:32:32-p272:64:64-i64:64-i128:128-f80:128-n8:16:32:64-S128"
target triple = "x86_64-pc-linux-gnu"

%"class.Luau::AstStat.base" = type { %"class.Luau::AstNode.base", i8 }
%"class.Luau::AstNode.base" = type <{ ptr, i32, %"struct.Luau::Location" }>
%"struct.Luau::Location" = type { %"struct.Luau::Position", %"struct.Luau::Position" }
%"struct.Luau::Position" = type { i32, i32 }
%"struct.Luau::AstArray.305" = type { ptr, i64 }
%"struct.Luau::AstArray.304" = type { ptr, i64 }
%"class.Luau::AstStatError" = type <{ %"class.Luau::AstStat.base", [3 x i8], %"struct.Luau::AstArray.304", %"struct.Luau::AstArray.305", i32, [4 x i8] }>

; Function Attrs: mustprogress nounwind uwtable
define linkonce_odr dso_local noundef ptr @_ZNK4Luau8AstArrayIPNS_7AstStatEE3endEv(ptr noundef nonnull align 8 dereferenceable(16) %0) #2 comdat align 2 {
  %2 = alloca ptr, align 8
  store ptr %0, ptr %2, align 8, !tbaa !134
  %3 = load ptr, ptr %2, align 8
  %4 = getelementptr inbounds nuw %"struct.Luau::AstArray.305", ptr %3, i32 0, i32 0
  %5 = load ptr, ptr %4, align 8, !tbaa !760
  %6 = getelementptr inbounds nuw %"struct.Luau::AstArray.305", ptr %3, i32 0, i32 1
  %7 = load i64, ptr %6, align 8, !tbaa !761
  %8 = getelementptr inbounds nuw ptr, ptr %5, i64 %7
  ret ptr %8
}

; Function Attrs: mustprogress nounwind uwtable
define linkonce_odr dso_local noundef ptr @_ZNK4Luau8AstArrayIPNS_7AstStatEE5beginEv(ptr noundef nonnull align 8 dereferenceable(16) %0) #2 comdat align 2 {
  %2 = alloca ptr, align 8
  store ptr %0, ptr %2, align 8, !tbaa !134
  %3 = load ptr, ptr %2, align 8
  %4 = getelementptr inbounds nuw %"struct.Luau::AstArray.305", ptr %3, i32 0, i32 0
  %5 = load ptr, ptr %4, align 8, !tbaa !760
  ret ptr %5
}

; Function Attrs: mustprogress nounwind uwtable
define linkonce_odr dso_local noundef ptr @_ZNK4Luau8AstArrayIPNS_7AstExprEE3endEv(ptr noundef nonnull align 8 dereferenceable(16) %0) #2 comdat align 2 {
  %2 = alloca ptr, align 8
  store ptr %0, ptr %2, align 8, !tbaa !671
  %3 = load ptr, ptr %2, align 8
  %4 = getelementptr inbounds nuw %"struct.Luau::AstArray.304", ptr %3, i32 0, i32 0
  %5 = load ptr, ptr %4, align 8, !tbaa !591
  %6 = getelementptr inbounds nuw %"struct.Luau::AstArray.304", ptr %3, i32 0, i32 1
  %7 = load i64, ptr %6, align 8, !tbaa !590
  %8 = getelementptr inbounds nuw ptr, ptr %5, i64 %7
  ret ptr %8
}

; Function Attrs: mustprogress nounwind uwtable
define linkonce_odr dso_local noundef ptr @_ZNK4Luau8AstArrayIPNS_7AstExprEE5beginEv(ptr noundef nonnull align 8 dereferenceable(16) %0) #2 comdat align 2 {
  %2 = alloca ptr, align 8
  store ptr %0, ptr %2, align 8, !tbaa !671
  %3 = load ptr, ptr %2, align 8
  %4 = getelementptr inbounds nuw %"struct.Luau::AstArray.304", ptr %3, i32 0, i32 0
  %5 = load ptr, ptr %4, align 8, !tbaa !591
  ret ptr %5
}

; Function Attrs: mustprogress uwtable
define dso_local void @_ZN4Luau12TypeChecker25visitEPNS_12AstStatErrorE(ptr noundef nonnull align 8 dereferenceable(784) %0, ptr noundef %1) #7 align 2 {
  %3 = alloca ptr, align 8
  %4 = alloca ptr, align 8
  %5 = alloca ptr, align 8
  %6 = alloca ptr, align 8
  %7 = alloca ptr, align 8
  %8 = alloca ptr, align 8
  %9 = alloca ptr, align 8
  %10 = alloca ptr, align 8
  %11 = alloca ptr, align 8
  %12 = alloca ptr, align 8
  store ptr %0, ptr %3, align 8, !tbaa !131
  store ptr %1, ptr %4, align 8, !tbaa !634
  %13 = load ptr, ptr %3, align 8
  call void @llvm.lifetime.start.p0(i64 8, ptr %5) #4
  %14 = load ptr, ptr %4, align 8, !tbaa !634
  %15 = getelementptr inbounds nuw %"class.Luau::AstStatError", ptr %14, i32 0, i32 2
  store ptr %15, ptr %5, align 8, !tbaa !671
  call void @llvm.lifetime.start.p0(i64 8, ptr %6) #4
  %16 = load ptr, ptr %5, align 8, !tbaa !671
  %17 = call noundef ptr @_ZNK4Luau8AstArrayIPNS_7AstExprEE5beginEv(ptr noundef nonnull align 8 dereferenceable(16) %16)
  store ptr %17, ptr %6, align 8, !tbaa !535
  call void @llvm.lifetime.start.p0(i64 8, ptr %7) #4
  %18 = load ptr, ptr %5, align 8, !tbaa !671
  %19 = call noundef ptr @_ZNK4Luau8AstArrayIPNS_7AstExprEE3endEv(ptr noundef nonnull align 8 dereferenceable(16) %18)
  store ptr %19, ptr %7, align 8, !tbaa !535
  br label %20

20:                                               ; preds = %29, %2
  %21 = load ptr, ptr %6, align 8, !tbaa !535
  %22 = load ptr, ptr %7, align 8, !tbaa !535
  %23 = icmp ne ptr %21, %22
  br i1 %23, label %25, label %24

24:                                               ; preds = %20
  call void @llvm.lifetime.end.p0(i64 8, ptr %7) #4
  call void @llvm.lifetime.end.p0(i64 8, ptr %6) #4
  call void @llvm.lifetime.end.p0(i64 8, ptr %5) #4
  br label %32

25:                                               ; preds = %20
  call void @llvm.lifetime.start.p0(i64 8, ptr %8) #4
  %26 = load ptr, ptr %6, align 8, !tbaa !535
  %27 = load ptr, ptr %26, align 8, !tbaa !312
  store ptr %27, ptr %8, align 8, !tbaa !312
  %28 = load ptr, ptr %8, align 8, !tbaa !312
  call void @_ZN4Luau12TypeChecker25visitEPNS_7AstExprENS_12ValueContextE(ptr noundef nonnull align 8 dereferenceable(784) %13, ptr noundef %28, i32 noundef 1)
  call void @llvm.lifetime.end.p0(i64 8, ptr %8) #4
  br label %29

29:                                               ; preds = %25
  %30 = load ptr, ptr %6, align 8, !tbaa !535
  %31 = getelementptr inbounds nuw ptr, ptr %30, i32 1
  store ptr %31, ptr %6, align 8, !tbaa !535
  br label %20

32:                                               ; preds = %24
  call void @llvm.lifetime.start.p0(i64 8, ptr %9) #4
  %33 = load ptr, ptr %4, align 8, !tbaa !634
  %34 = getelementptr inbounds nuw %"class.Luau::AstStatError", ptr %33, i32 0, i32 3
  store ptr %34, ptr %9, align 8, !tbaa !134
  call void @llvm.lifetime.start.p0(i64 8, ptr %10) #4
  %35 = load ptr, ptr %9, align 8, !tbaa !134
  %36 = call noundef ptr @_ZNK4Luau8AstArrayIPNS_7AstStatEE5beginEv(ptr noundef nonnull align 8 dereferenceable(16) %35)
  store ptr %36, ptr %10, align 8, !tbaa !136
  call void @llvm.lifetime.start.p0(i64 8, ptr %11) #4
  %37 = load ptr, ptr %9, align 8, !tbaa !134
  %38 = call noundef ptr @_ZNK4Luau8AstArrayIPNS_7AstStatEE3endEv(ptr noundef nonnull align 8 dereferenceable(16) %37)
  store ptr %38, ptr %11, align 8, !tbaa !136
  br label %39

39:                                               ; preds = %48, %32
  %40 = load ptr, ptr %10, align 8, !tbaa !136
  %41 = load ptr, ptr %11, align 8, !tbaa !136
  %42 = icmp ne ptr %40, %41
  br i1 %42, label %44, label %43

43:                                               ; preds = %39
  call void @llvm.lifetime.end.p0(i64 8, ptr %11) #4
  call void @llvm.lifetime.end.p0(i64 8, ptr %10) #4
  call void @llvm.lifetime.end.p0(i64 8, ptr %9) #4
  br label %51

44:                                               ; preds = %39
  call void @llvm.lifetime.start.p0(i64 8, ptr %12) #4
  %45 = load ptr, ptr %10, align 8, !tbaa !136
  %46 = load ptr, ptr %45, align 8, !tbaa !139
  store ptr %46, ptr %12, align 8, !tbaa !139
  %47 = load ptr, ptr %12, align 8, !tbaa !139
  call void @_ZN4Luau12TypeChecker25visitEPNS_7AstStatE(ptr noundef nonnull align 8 dereferenceable(784) %13, ptr noundef %47)
  call void @llvm.lifetime.end.p0(i64 8, ptr %12) #4
  br label %48

48:                                               ; preds = %44
  %49 = load ptr, ptr %10, align 8, !tbaa !136
  %50 = getelementptr inbounds nuw ptr, ptr %49, i32 1
  store ptr %50, ptr %10, align 8, !tbaa !136
  br label %39

51:                                               ; preds = %43
  ret void
}