; Function Attrs: mustprogress uwtable
define dso_local void @_ZN4Luau12TypeChecker25visitEPNS_12AstStatErrorE(ptr noundef nonnull align 8 dereferenceable(784) %0, ptr noundef readonly captures(none) %1) local_unnamed_addr #5 align 2 {
  %3 = getelementptr inbounds nuw i8, ptr %1, i64 32
  %4 = load ptr, ptr %3, align 8, !tbaa !505
  %5 = getelementptr inbounds nuw i8, ptr %1, i64 40
  %6 = load i64, ptr %5, align 8, !tbaa !506
  %7 = getelementptr inbounds nuw ptr, ptr %4, i64 %6
  %.not19 = icmp eq i64 %6, 0
  br i1 %.not19, label %._crit_edge, label %.lr.ph

._crit_edge:                                      ; preds = %.lr.ph, %2
  %8 = getelementptr inbounds nuw i8, ptr %1, i64 48
  %9 = load ptr, ptr %8, align 8, !tbaa !77
  %10 = getelementptr inbounds nuw i8, ptr %1, i64 56
  %11 = load i64, ptr %10, align 8, !tbaa !80
  %12 = getelementptr inbounds nuw ptr, ptr %9, i64 %11
  %.not1821 = icmp eq i64 %11, 0
  br i1 %.not1821, label %._crit_edge25, label %.lr.ph24

.lr.ph:                                           ; preds = %2, %.lr.ph
  %.020 = phi ptr [ %14, %.lr.ph ], [ %4, %2 ]
  %13 = load ptr, ptr %.020, align 8, !tbaa !249
  tail call void @_ZN4Luau12TypeChecker25visitEPNS_7AstExprENS_12ValueContextE(ptr noundef nonnull align 8 dereferenceable(784) %0, ptr noundef %13, i32 noundef 1)
  %14 = getelementptr inbounds nuw i8, ptr %.020, i64 8
  %.not = icmp eq ptr %14, %7
  br i1 %.not, label %._crit_edge, label %.lr.ph

._crit_edge25:                                    ; preds = %.lr.ph24, %._crit_edge
  ret void

.lr.ph24:                                         ; preds = %._crit_edge, %.lr.ph24
  %.01722 = phi ptr [ %16, %.lr.ph24 ], [ %9, %._crit_edge ]
  %15 = load ptr, ptr %.01722, align 8, !tbaa !93
  tail call void @_ZN4Luau12TypeChecker25visitEPNS_7AstStatE(ptr noundef nonnull align 8 dereferenceable(784) %0, ptr noundef %15)
  %16 = getelementptr inbounds nuw i8, ptr %.01722, i64 8
  %.not18 = icmp eq ptr %16, %12
  br i1 %.not18, label %._crit_edge25, label %.lr.ph24
}